target datalayout = "e-m:e-p270:32:32-p271:32:32-p272:64:64-i64:64-i128:128-f80:128-n8:16:32:64-S128"
target triple = "x86_64-pc-linux-gnu"

%struct.thread_event = type { i64, i32 }

@timeline_cursor = internal global i32 0, align 4
@event_timeline = internal global [1024 x %struct.thread_event] zeroinitializer, align 16
@single_hook = internal global ptr null, align 8
@.str.13 = private unnamed_addr constant [8 x i8] c"started\00", align 1
@.str.14 = private unnamed_addr constant [6 x i8] c"ready\00", align 1
@.str.15 = private unnamed_addr constant [8 x i8] c"resumed\00", align 1
@.str.16 = private unnamed_addr constant [10 x i8] c"suspended\00", align 1
@.str.17 = private unnamed_addr constant [7 x i8] c"exited\00", align 1
@event_symbol.rbimpl_id = internal global i64 0, align 8
@event_symbol.rbimpl_id.19 = internal global i64 0, align 8
@event_symbol.rbimpl_id.20 = internal global i64 0, align 8
@event_symbol.rbimpl_id.21 = internal global i64 0, align 8
@event_symbol.rbimpl_id.22 = internal global i64 0, align 8
@.str.23 = private unnamed_addr constant [44 x i8] c"TestThreadInstrumentation: Unexpected event\00", align 1

; Function Attrs: inlinehint nounwind sspstrong willreturn memory(read) uwtable
define internal i64 @rb_intern_const(ptr noundef nonnull %0) #6 {
  %2 = alloca ptr, align 8
  %3 = alloca i64, align 8
  store ptr %0, ptr %2, align 8, !tbaa !32
  call void @llvm.lifetime.start.p0(i64 8, ptr %3) #11
  %4 = load ptr, ptr %2, align 8, !tbaa !32
  %5 = call i64 @strlen(ptr noundef %4) #15
  store i64 %5, ptr %3, align 8, !tbaa !6
  %6 = load ptr, ptr %2, align 8, !tbaa !32
  %7 = load i64, ptr %3, align 8, !tbaa !6
  %8 = call i64 @rb_intern2(ptr noundef %6, i64 noundef %7)
  call void @llvm.lifetime.end.p0(i64 8, ptr %3) #11
  ret i64 %8
}

; Function Attrs: alwaysinline nounwind
define internal ptr @memset.inline(ptr nonnull %0, i32 %1, i64 %2) #8 {
  %4 = alloca ptr, align 8
  %5 = alloca i32, align 4
  %6 = alloca i64, align 8
  store ptr %0, ptr %4, align 8, !tbaa !21
  store i32 %1, ptr %5, align 4, !tbaa !13
  store i64 %2, ptr %6, align 8, !tbaa !6
  %7 = load ptr, ptr %4, align 8, !tbaa !21
  %8 = load i32, ptr %5, align 4, !tbaa !13
  %9 = load i64, ptr %6, align 8, !tbaa !6
  %10 = load ptr, ptr %4, align 8, !tbaa !21
  %11 = call i64 @llvm.objectsize.i64.p0(ptr %10, i1 false, i1 true, i1 false)
  %12 = call ptr @__memset_chk(ptr noundef %7, i32 noundef %8, i64 noundef %9, i64 noundef %11) #11
  ret ptr %12
}

; Function Attrs: inlinehint nounwind sspstrong memory(argmem: readwrite, inaccessiblemem: readwrite) uwtable
define internal i64 @rbimpl_intern_const(ptr noundef nonnull %0, ptr noundef nonnull %1) #4 {
  %3 = alloca ptr, align 8
  %4 = alloca ptr, align 8
  store ptr %0, ptr %3, align 8, !tbaa !38
  store ptr %1, ptr %4, align 8, !tbaa !32
  br label %5

5:                                                ; preds = %10, %2
  %6 = load ptr, ptr %3, align 8, !tbaa !38
  %7 = load i64, ptr %6, align 8, !tbaa !6
  %8 = icmp ne i64 %7, 0
  %9 = xor i1 %8, true
  br i1 %9, label %10, label %14

10:                                               ; preds = %5
  %11 = load ptr, ptr %4, align 8, !tbaa !32
  %12 = call i64 @rb_intern_const(ptr noundef %11) #15
  %13 = load ptr, ptr %3, align 8, !tbaa !38
  store i64 %12, ptr %13, align 8, !tbaa !6
  br label %5, !llvm.loop !40

14:                                               ; preds = %5
  %15 = load ptr, ptr %3, align 8, !tbaa !38
  %16 = load i64, ptr %15, align 8, !tbaa !6
  ret i64 %16
}

; Function Attrs: nounwind sspstrong uwtable
define internal void @reset_timeline() #0 {
  store i32 0, ptr @timeline_cursor, align 4, !tbaa !13
  %1 = call ptr @memset.inline(ptr noundef @event_timeline, i32 noundef 0, i64 noundef 16384) #11
  ret void
}

; Function Attrs: nounwind sspstrong uwtable
define internal i64 @event_symbol(i32 noundef %0) #0 {
  %2 = alloca i64, align 8
  %3 = alloca i32, align 4
  %4 = alloca i64, align 8
  %5 = alloca i64, align 8
  %6 = alloca i64, align 8
  %7 = alloca i64, align 8
  %8 = alloca i64, align 8
  store i32 %0, ptr %3, align 4, !tbaa !13
  %9 = load i32, ptr %3, align 4, !tbaa !13
  switch i32 %9, label %30 [
    i32 1, label %10
    i32 2, label %14
    i32 4, label %18
    i32 8, label %22
    i32 16, label %26
  ]

10:                                               ; preds = %1
  %11 = call i64 @rbimpl_intern_const(ptr noundef @event_symbol.rbimpl_id, ptr noundef @.str.13) #13
  store i64 %11, ptr %4, align 8, !tbaa !6
  %12 = load i64, ptr %4, align 8, !tbaa !6
  %13 = call i64 @rb_id2sym(i64 noundef %12)
  store i64 %13, ptr %2, align 8
  br label %31

14:                                               ; preds = %1
  %15 = call i64 @rbimpl_intern_const(ptr noundef @event_symbol.rbimpl_id.19, ptr noundef @.str.14) #13
  store i64 %15, ptr %5, align 8, !tbaa !6
  %16 = load i64, ptr %5, align 8, !tbaa !6
  %17 = call i64 @rb_id2sym(i64 noundef %16)
  store i64 %17, ptr %2, align 8
  br label %31

18:                                               ; preds = %1
  %19 = call i64 @rbimpl_intern_const(ptr noundef @event_symbol.rbimpl_id.20, ptr noundef @.str.15) #13
  store i64 %19, ptr %6, align 8, !tbaa !6
  %20 = load i64, ptr %6, align 8, !tbaa !6
  %21 = call i64 @rb_id2sym(i64 noundef %20)
  store i64 %21, ptr %2, align 8
  br label %31

22:                                               ; preds = %1
  %23 = call i64 @rbimpl_intern_const(ptr noundef @event_symbol.rbimpl_id.21, ptr noundef @.str.16) #13
  store i64 %23, ptr %7, align 8, !tbaa !6
  %24 = load i64, ptr %7, align 8, !tbaa !6
  %25 = call i64 @rb_id2sym(i64 noundef %24)
  store i64 %25, ptr %2, align 8
  br label %31

26:                                               ; preds = %1
  %27 = call i64 @rbimpl_intern_const(ptr noundef @event_symbol.rbimpl_id.22, ptr noundef @.str.17) #13
  store i64 %27, ptr %8, align 8, !tbaa !6
  %28 = load i64, ptr %8, align 8, !tbaa !6
  %29 = call i64 @rb_id2sym(i64 noundef %28)
  store i64 %29, ptr %2, align 8
  br label %31

30:                                               ; preds = %1
  call void (ptr, ...) @rb_bug(ptr noundef @.str.23) #14
  unreachable

31:                                               ; preds = %26, %22, %18, %14, %10
  %32 = load i64, ptr %2, align 8
  ret i64 %32
}

; Function Attrs: nounwind sspstrong uwtable
define internal i64 @thread_unregister_callback(i64 noundef %0) #0 {
  %2 = alloca i64, align 8
  %3 = alloca i64, align 8
  %4 = alloca i32, align 4
  %5 = alloca i64, align 8
  store i64 %0, ptr %2, align 8, !tbaa !6
  %6 = load ptr, ptr @single_hook, align 8, !tbaa !10
  %7 = icmp ne ptr %6, null
  br i1 %7, label %8, label %11

8:                                                ; preds = %1
  %9 = load ptr, ptr @single_hook, align 8, !tbaa !10
  %10 = call zeroext i1 @rb_internal_thread_remove_event_hook(ptr noundef %9)
  store ptr null, ptr @single_hook, align 8, !tbaa !10
  br label %11

11:                                               ; preds = %8, %1
  call void @llvm.lifetime.start.p0(i64 8, ptr %3) #11
  %12 = load i32, ptr @timeline_cursor, align 4, !tbaa !13
  %13 = zext i32 %12 to i64
  %14 = call i64 @rb_ary_new_capa(i64 noundef %13)
  store i64 %14, ptr %3, align 8, !tbaa !6
  call void @llvm.lifetime.start.p0(i64 4, ptr %4) #11
  store i32 0, ptr %4, align 4, !tbaa !13
  br label %15

15:                                               ; preds = %39, %11
  %16 = load i32, ptr %4, align 4, !tbaa !13
  %17 = load i32, ptr @timeline_cursor, align 4, !tbaa !13
  %18 = icmp ult i32 %16, %17
  br i1 %18, label %19, label %42

19:                                               ; preds = %15
  call void @llvm.lifetime.start.p0(i64 8, ptr %5) #11
  %20 = call i64 @rb_ary_new_capa(i64 noundef 2)
  store i64 %20, ptr %5, align 8, !tbaa !6
  %21 = load i64, ptr %5, align 8, !tbaa !6
  %22 = load i32, ptr %4, align 4, !tbaa !13
  %23 = zext i32 %22 to i64
  %24 = getelementptr inbounds nuw [1024 x %struct.thread_event], ptr @event_timeline, i64 0, i64 %23
  %25 = getelementptr inbounds nuw %struct.thread_event, ptr %24, i32 0, i32 0
  %26 = load i64, ptr %25, align 16, !tbaa !15
  %27 = call i64 @rb_ary_push(i64 noundef %21, i64 noundef %26)
  %28 = load i64, ptr %5, align 8, !tbaa !6
  %29 = load i32, ptr %4, align 4, !tbaa !13
  %30 = zext i32 %29 to i64
  %31 = getelementptr inbounds nuw [1024 x %struct.thread_event], ptr @event_timeline, i64 0, i64 %30
  %32 = getelementptr inbounds nuw %struct.thread_event, ptr %31, i32 0, i32 1
  %33 = load i32, ptr %32, align 8, !tbaa !17
  %34 = call i64 @event_symbol(i32 noundef %33)
  %35 = call i64 @rb_ary_push(i64 noundef %28, i64 noundef %34)
  %36 = load i64, ptr %3, align 8, !tbaa !6
  %37 = load i64, ptr %5, align 8, !tbaa !6
  %38 = call i64 @rb_ary_push(i64 noundef %36, i64 noundef %37)
  call void @llvm.lifetime.end.p0(i64 8, ptr %5) #11
  br label %39

39:                                               ; preds = %19
  %40 = load i32, ptr %4, align 4, !tbaa !13
  %41 = add i32 %40, 1
  store i32 %41, ptr %4, align 4, !tbaa !13
  br label %15, !llvm.loop !18

42:                                               ; preds = %15
  call void @reset_timeline()
  %43 = load i64, ptr %3, align 8, !tbaa !6
  call void @llvm.lifetime.end.p0(i64 4, ptr %4) #11
  call void @llvm.lifetime.end.p0(i64 8, ptr %3) #11
  ret i64 %43
}