; Function Attrs: nounwind sspstrong uwtable
define internal i64 @thread_unregister_callback(i64 %0) #0 {
  %2 = load ptr, ptr @single_hook, align 8, !tbaa !10
  %.not = icmp eq ptr %2, null
  br i1 %.not, label %5, label %3

3:                                                ; preds = %1
  %4 = tail call zeroext i1 @rb_internal_thread_remove_event_hook(ptr noundef nonnull %2) #5
  store ptr null, ptr @single_hook, align 8, !tbaa !10
  br label %5

5:                                                ; preds = %3, %1
  %6 = load i32, ptr @timeline_cursor, align 4, !tbaa !13
  %7 = zext i32 %6 to i64
  %8 = tail call i64 @rb_ary_new_capa(i64 noundef %7) #5
  %9 = load i32, ptr @timeline_cursor, align 4, !tbaa !13
  %.not19 = icmp eq i32 %9, 0
  br i1 %.not19, label %._crit_edge, label %.lr.ph

.lr.ph:                                           ; preds = %5, %event_symbol.exit
  %indvars.iv = phi i64 [ %indvars.iv.next, %event_symbol.exit ], [ 0, %5 ]
  %10 = tail call i64 @rb_ary_new_capa(i64 noundef 2) #5
  %11 = getelementptr inbounds nuw [1024 x %struct.thread_event], ptr @event_timeline, i64 0, i64 %indvars.iv
  %12 = load i64, ptr %11, align 16, !tbaa !15
  %13 = tail call i64 @rb_ary_push(i64 noundef %10, i64 noundef %12) #5
  %14 = getelementptr inbounds nuw i8, ptr %11, i64 8
  %15 = load i32, ptr %14, align 8, !tbaa !17
  switch i32 %15, label %26 [
    i32 1, label %16
    i32 2, label %18
    i32 4, label %20
    i32 8, label %22
    i32 16, label %24
  ]

16:                                               ; preds = %.lr.ph
  %.pr.i.i = load i64, ptr @event_symbol.rbimpl_id, align 8, !tbaa !6
  %.not4.i.i = icmp eq i64 %.pr.i.i, 0
  br i1 %.not4.i.i, label %.lr.ph.i.i, label %event_symbol.exit

.lr.ph.i.i:                                       ; preds = %16, %.lr.ph.i.i
  %17 = tail call i64 @rb_intern2(ptr noundef nonnull @.str.13, i64 noundef 7) #5
  store i64 %17, ptr @event_symbol.rbimpl_id, align 8, !tbaa !6
  %.not.i.i = icmp eq i64 %17, 0
  br i1 %.not.i.i, label %.lr.ph.i.i, label %event_symbol.exit, !llvm.loop !18

18:                                               ; preds = %.lr.ph
  %.pr.i7.i = load i64, ptr @event_symbol.rbimpl_id.19, align 8, !tbaa !6
  %.not4.i8.i = icmp eq i64 %.pr.i7.i, 0
  br i1 %.not4.i8.i, label %.lr.ph.i10.i, label %event_symbol.exit

.lr.ph.i10.i:                                     ; preds = %18, %.lr.ph.i10.i
  %19 = tail call i64 @rb_intern2(ptr noundef nonnull @.str.14, i64 noundef 5) #5
  store i64 %19, ptr @event_symbol.rbimpl_id.19, align 8, !tbaa !6
  %.not.i11.i = icmp eq i64 %19, 0
  br i1 %.not.i11.i, label %.lr.ph.i10.i, label %event_symbol.exit, !llvm.loop !18

20:                                               ; preds = %.lr.ph
  %.pr.i13.i = load i64, ptr @event_symbol.rbimpl_id.20, align 8, !tbaa !6
  %.not4.i14.i = icmp eq i64 %.pr.i13.i, 0
  br i1 %.not4.i14.i, label %.lr.ph.i16.i, label %event_symbol.exit

.lr.ph.i16.i:                                     ; preds = %20, %.lr.ph.i16.i
  %21 = tail call i64 @rb_intern2(ptr noundef nonnull @.str.15, i64 noundef 7) #5
  store i64 %21, ptr @event_symbol.rbimpl_id.20, align 8, !tbaa !6
  %.not.i17.i = icmp eq i64 %21, 0
  br i1 %.not.i17.i, label %.lr.ph.i16.i, label %event_symbol.exit, !llvm.loop !18

22:                                               ; preds = %.lr.ph
  %.pr.i19.i = load i64, ptr @event_symbol.rbimpl_id.21, align 8, !tbaa !6
  %.not4.i20.i = icmp eq i64 %.pr.i19.i, 0
  br i1 %.not4.i20.i, label %.lr.ph.i22.i, label %event_symbol.exit

.lr.ph.i22.i:                                     ; preds = %22, %.lr.ph.i22.i
  %23 = tail call i64 @rb_intern2(ptr noundef nonnull @.str.16, i64 noundef 9) #5
  store i64 %23, ptr @event_symbol.rbimpl_id.21, align 8, !tbaa !6
  %.not.i23.i = icmp eq i64 %23, 0
  br i1 %.not.i23.i, label %.lr.ph.i22.i, label %event_symbol.exit, !llvm.loop !18

24:                                               ; preds = %.lr.ph
  %.pr.i25.i = load i64, ptr @event_symbol.rbimpl_id.22, align 8, !tbaa !6
  %.not4.i26.i = icmp eq i64 %.pr.i25.i, 0
  br i1 %.not4.i26.i, label %.lr.ph.i28.i, label %event_symbol.exit

.lr.ph.i28.i:                                     ; preds = %24, %.lr.ph.i28.i
  %25 = tail call i64 @rb_intern2(ptr noundef nonnull @.str.17, i64 noundef 6) #5
  store i64 %25, ptr @event_symbol.rbimpl_id.22, align 8, !tbaa !6
  %.not.i29.i = icmp eq i64 %25, 0
  br i1 %.not.i29.i, label %.lr.ph.i28.i, label %event_symbol.exit, !llvm.loop !18

26:                                               ; preds = %.lr.ph
  tail call void (ptr, ...) @rb_bug(ptr noundef nonnull @.str.23) #6
  unreachable

event_symbol.exit:                                ; preds = %.lr.ph.i28.i, %.lr.ph.i22.i, %.lr.ph.i16.i, %.lr.ph.i10.i, %.lr.ph.i.i, %16, %18, %20, %22, %24
  %.lcssa.i27.sink.i = phi i64 [ %.pr.i.i, %16 ], [ %.pr.i7.i, %18 ], [ %.pr.i13.i, %20 ], [ %.pr.i19.i, %22 ], [ %.pr.i25.i, %24 ], [ %17, %.lr.ph.i.i ], [ %19, %.lr.ph.i10.i ], [ %21, %.lr.ph.i16.i ], [ %23, %.lr.ph.i22.i ], [ %25, %.lr.ph.i28.i ]
  %27 = tail call i64 @rb_id2sym(i64 noundef %.lcssa.i27.sink.i) #5
  %28 = tail call i64 @rb_ary_push(i64 noundef %10, i64 noundef %27) #5
  %29 = tail call i64 @rb_ary_push(i64 noundef %8, i64 noundef %10) #5
  %indvars.iv.next = add nuw nsw i64 %indvars.iv, 1
  %30 = load i32, ptr @timeline_cursor, align 4, !tbaa !13
  %31 = zext i32 %30 to i64
  %32 = icmp samesign ult i64 %indvars.iv.next, %31
  br i1 %32, label %.lr.ph, label %._crit_edge, !llvm.loop !20

._crit_edge:                                      ; preds = %event_symbol.exit, %5
  store i32 0, ptr @timeline_cursor, align 4, !tbaa !13
  tail call void @llvm.memset.p0.i64(ptr noundef nonnull align 16 dereferenceable(16384) @event_timeline, i8 noundef 0, i64 noundef 16384, i1 noundef false) #5
  ret i64 %8
}